target datalayout = "e-m:e-p270:32:32-p271:32:32-p272:64:64-i64:64-i128:128-f80:128-n8:16:32:64-S128"
target triple = "x86_64-pc-linux-gnu"

@_ZN12_GLOBAL__N_116gEmptyUnicodeSetE = internal global [200 x i8] zeroinitializer, align 8
@_ZN12_GLOBAL__N_112gUnicodeSetsE = internal global [24 x ptr] zeroinitializer, align 16

; Function Attrs: inlinehint mustprogress nounwind uwtable
define internal noundef ptr @_ZN12_GLOBAL__N_17getImplEN6icu_777unisets3KeyE(i32 noundef %0) #3 {
  %2 = alloca ptr, align 8
  %3 = alloca i32, align 4
  %4 = alloca ptr, align 8
  %5 = alloca i32, align 4
  store i32 %0, ptr %3, align 4, !tbaa !3
  call void @llvm.lifetime.start.p0(i64 8, ptr %4) #11
  %6 = load i32, ptr %3, align 4, !tbaa !3
  %7 = sext i32 %6 to i64
  %8 = getelementptr inbounds [24 x ptr], ptr @_ZN12_GLOBAL__N_112gUnicodeSetsE, i64 0, i64 %7
  %9 = load ptr, ptr %8, align 8, !tbaa !19
  store ptr %9, ptr %4, align 8, !tbaa !19
  %10 = load ptr, ptr %4, align 8, !tbaa !19
  %11 = icmp eq ptr %10, null
  br i1 %11, label %12, label %13

12:                                               ; preds = %1
  store ptr @_ZN12_GLOBAL__N_116gEmptyUnicodeSetE, ptr %2, align 8
  store i32 1, ptr %5, align 4
  br label %15

13:                                               ; preds = %1
  %14 = load ptr, ptr %4, align 8, !tbaa !19
  store ptr %14, ptr %2, align 8
  store i32 1, ptr %5, align 4
  br label %15

15:                                               ; preds = %13, %12
  call void @llvm.lifetime.end.p0(i64 8, ptr %4) #11
  %16 = load ptr, ptr %2, align 8
  ret ptr %16
}

; Function Attrs: mustprogress uwtable
define internal noundef ptr @_ZN12_GLOBAL__N_112computeUnionEN6icu_777unisets3KeyES2_(i32 noundef %0, i32 noundef %1) #0 personality ptr @__gxx_personality_v0 {
  %3 = alloca ptr, align 8
  %4 = alloca i32, align 4
  %5 = alloca i32, align 4
  %6 = alloca ptr, align 8
  %7 = alloca i1, align 1
  %8 = alloca ptr, align 8
  %9 = alloca i32, align 4
  %10 = alloca i32, align 4
  store i32 %0, ptr %4, align 4, !tbaa !3
  store i32 %1, ptr %5, align 4, !tbaa !3
  call void @llvm.lifetime.start.p0(i64 8, ptr %6) #11
  %11 = call noundef ptr @_ZN6icu_777UMemorynwEm(i64 noundef 200) #11
  %12 = icmp eq ptr %11, null
  store i1 false, ptr %7, align 1
  br i1 %12, label %15, label %13

13:                                               ; preds = %2
  store i1 true, ptr %7, align 1
  invoke void @_ZN6icu_7710UnicodeSetC1Ev(ptr noundef nonnull align 8 dereferenceable(200) %11)
          to label %14 unwind label %20

14:                                               ; preds = %13
  br label %15

15:                                               ; preds = %14, %2
  %16 = phi ptr [ %11, %14 ], [ null, %2 ]
  store ptr %16, ptr %6, align 8, !tbaa !19
  %17 = load ptr, ptr %6, align 8, !tbaa !19
  %18 = icmp eq ptr %17, null
  br i1 %18, label %19, label %27

19:                                               ; preds = %15
  store ptr null, ptr %3, align 8
  store i32 1, ptr %10, align 4
  br label %39

20:                                               ; preds = %13
  %21 = landingpad { ptr, i32 }
          cleanup
  %22 = extractvalue { ptr, i32 } %21, 0
  store ptr %22, ptr %8, align 8
  %23 = extractvalue { ptr, i32 } %21, 1
  store i32 %23, ptr %9, align 4
  %24 = load i1, ptr %7, align 1
  br i1 %24, label %25, label %26

25:                                               ; preds = %20
  call void @_ZN6icu_777UMemorydlEPv(ptr noundef %11) #11
  br label %26

26:                                               ; preds = %25, %20
  call void @llvm.lifetime.end.p0(i64 8, ptr %6) #11
  br label %41

27:                                               ; preds = %15
  %28 = load ptr, ptr %6, align 8, !tbaa !19
  %29 = load i32, ptr %4, align 4, !tbaa !3
  %30 = call noundef ptr @_ZN12_GLOBAL__N_17getImplEN6icu_777unisets3KeyE(i32 noundef %29)
  %31 = call noundef nonnull align 8 dereferenceable(200) ptr @_ZN6icu_7710UnicodeSet6addAllERKS0_(ptr noundef nonnull align 8 dereferenceable(200) %28, ptr noundef nonnull align 8 dereferenceable(200) %30)
  %32 = load ptr, ptr %6, align 8, !tbaa !19
  %33 = load i32, ptr %5, align 4, !tbaa !3
  %34 = call noundef ptr @_ZN12_GLOBAL__N_17getImplEN6icu_777unisets3KeyE(i32 noundef %33)
  %35 = call noundef nonnull align 8 dereferenceable(200) ptr @_ZN6icu_7710UnicodeSet6addAllERKS0_(ptr noundef nonnull align 8 dereferenceable(200) %32, ptr noundef nonnull align 8 dereferenceable(200) %34)
  %36 = load ptr, ptr %6, align 8, !tbaa !19
  %37 = call noundef ptr @_ZN6icu_7710UnicodeSet6freezeEv(ptr noundef nonnull align 8 dereferenceable(200) %36)
  %38 = load ptr, ptr %6, align 8, !tbaa !19
  store ptr %38, ptr %3, align 8
  store i32 1, ptr %10, align 4
  br label %39

39:                                               ; preds = %27, %19
  call void @llvm.lifetime.end.p0(i64 8, ptr %6) #11
  %40 = load ptr, ptr %3, align 8
  ret ptr %40

41:                                               ; preds = %26
  %42 = load ptr, ptr %8, align 8
  %43 = load i32, ptr %9, align 4
  %44 = insertvalue { ptr, i32 } poison, ptr %42, 0
  %45 = insertvalue { ptr, i32 } %44, i32 %43, 1
  resume { ptr, i32 } %45
}