; Function Attrs: mustprogress uwtable
define internal fastcc noundef ptr @_ZN12_GLOBAL__N_112computeUnionEN6icu_777unisets3KeyES2_(i32 noundef range(i32 9, 11) %0) unnamed_addr #0 personality ptr @__gxx_personality_v0 {
  %2 = tail call noundef ptr @_ZN6icu_777UMemorynwEm(i64 noundef 200) #9
  %3 = icmp eq ptr %2, null
  br i1 %3, label %.thread, label %4

4:                                                ; preds = %1
  invoke void @_ZN6icu_7710UnicodeSetC1Ev(ptr noundef nonnull align 8 dereferenceable(200) %2)
          to label %7 unwind label %5

5:                                                ; preds = %4
  %6 = landingpad { ptr, i32 }
          cleanup
  tail call void @_ZN6icu_777UMemorydlEPv(ptr noundef nonnull %2) #9
  resume { ptr, i32 } %6

7:                                                ; preds = %4
  %8 = load ptr, ptr getelementptr inbounds nuw (i8, ptr @_ZN12_GLOBAL__N_112gUnicodeSetsE, i64 168), align 8, !tbaa !10
  %9 = icmp eq ptr %8, null
  %_ZN12_GLOBAL__N_116gEmptyUnicodeSetE..i = select i1 %9, ptr @_ZN12_GLOBAL__N_116gEmptyUnicodeSetE, ptr %8
  %10 = tail call noundef nonnull align 8 dereferenceable(200) ptr @_ZN6icu_7710UnicodeSet6addAllERKS0_(ptr noundef nonnull align 8 dereferenceable(200) %2, ptr noundef nonnull align 8 dereferenceable(200) %_ZN12_GLOBAL__N_116gEmptyUnicodeSetE..i)
  %11 = zext nneg i32 %0 to i64
  %12 = getelementptr inbounds nuw [24 x ptr], ptr @_ZN12_GLOBAL__N_112gUnicodeSetsE, i64 0, i64 %11
  %13 = load ptr, ptr %12, align 8, !tbaa !10
  %14 = icmp eq ptr %13, null
  %_ZN12_GLOBAL__N_116gEmptyUnicodeSetE..i12 = select i1 %14, ptr @_ZN12_GLOBAL__N_116gEmptyUnicodeSetE, ptr %13
  %15 = tail call noundef nonnull align 8 dereferenceable(200) ptr @_ZN6icu_7710UnicodeSet6addAllERKS0_(ptr noundef nonnull align 8 dereferenceable(200) %2, ptr noundef nonnull align 8 dereferenceable(200) %_ZN12_GLOBAL__N_116gEmptyUnicodeSetE..i12)
  %16 = tail call noundef ptr @_ZN6icu_7710UnicodeSet6freezeEv(ptr noundef nonnull align 8 dereferenceable(200) %2)
  br label %.thread

.thread:                                          ; preds = %1, %7
  ret ptr %2
}